---
triple:          'arm64-apple-darwin'
binary-path:     '/Users/dgarcia/Documents/GitHub/TC2037/CPP/example05'
relocations:
  - { offsetInCU: 0x338E, offset: 0x338E, size: 0x8, addend: 0x0, symName: __ZNSt3__16chronomiB8ue170006IxNS_5ratioILl1ELl1000000000EEExS3_EENS_11common_typeIJNS0_8durationIT_T0_EENS5_IT1_T2_EEEE4typeERKS8_RKSB_, symObjAddr: 0x860, symBinAddr: 0x1000022BC, symSize: 0x70 }
  - { offsetInCU: 0x3542, offset: 0x3542, size: 0x8, addend: 0x0, symName: __ZNSt3__16chronomiB8ue170006INS0_12steady_clockENS0_8durationIxNS_5ratioILl1ELl1000000000EEEEES6_EENS_11common_typeIJT0_T1_EE4typeERKNS0_10time_pointIT_S8_EERKNSC_ISD_S9_EE, symObjAddr: 0x5F0, symBinAddr: 0x10000204C, symSize: 0x58 }
  - { offsetInCU: 0x35DA, offset: 0x35DA, size: 0x8, addend: 0x0, symName: __ZNSt3__16chrono13duration_castB8ue170006INS0_8durationIdNS_5ratioILl1ELl1000EEEEExNS3_ILl1ELl1000000000EEEEENS_9enable_ifIXsr13__is_durationIT_EE5valueES8_E4typeERKNS2_IT0_T1_EE, symObjAddr: 0x950, symBinAddr: 0x1000023AC, symSize: 0x30 }
  - { offsetInCU: 0x3CC5, offset: 0x3CC5, size: 0x8, addend: 0x0, symName: __ZNSt3__124__put_character_sequenceB8ue170006IcNS_11char_traitsIcEEEERNS_13basic_ostreamIT_T0_EES7_PKS4_m, symObjAddr: 0x16D0, symBinAddr: 0x10000312C, symSize: 0x1EC }
  - { offsetInCU: 0x5BCB, offset: 0x5BCB, size: 0x8, addend: 0x0, symName: __ZNSt3__1lsB8ue170006INS_11char_traitsIcEEEERNS_13basic_ostreamIcT_EES6_PKc, symObjAddr: 0x5A8, symBinAddr: 0x100002004, symSize: 0x48 }
  - { offsetInCU: 0x5C2D, offset: 0x5C2D, size: 0x8, addend: 0x0, symName: __ZNSt3__1lsB8ue170006IcNS_11char_traitsIcEEEERNS_13basic_ostreamIT_T0_EES7_RKNS_8__iom_t5E, symObjAddr: 0x69C, symBinAddr: 0x1000020F8, symSize: 0x40 }
  - { offsetInCU: 0x5C79, offset: 0x5C79, size: 0x8, addend: 0x0, symName: __ZNSt3__15fixedB8ue170006ERNS_8ios_baseE, symObjAddr: 0x71C, symBinAddr: 0x100002178, symSize: 0x30 }
  - { offsetInCU: 0x5CA7, offset: 0x5CA7, size: 0x8, addend: 0x0, symName: __ZNSt3__112setprecisionB8ue170006Ei, symObjAddr: 0x74C, symBinAddr: 0x1000021A8, symSize: 0x2C }
  - { offsetInCU: 0x5CD3, offset: 0x5CD3, size: 0x8, addend: 0x0, symName: __ZNSt3__113__countl_zeroB8ue170006IjEEiT_, symObjAddr: 0xED0, symBinAddr: 0x10000292C, symSize: 0x54 }
  - { offsetInCU: 0x5D6E, offset: 0x5D6E, size: 0x8, addend: 0x0, symName: __ZNSt3__112__libcpp_clzB8ue170006Ej, symObjAddr: 0x1454, symBinAddr: 0x100002EB0, symSize: 0x18 }
  - { offsetInCU: 0x5D9A, offset: 0x5D9A, size: 0x8, addend: 0x0, symName: __ZNSt3__118generate_canonicalB8ue170006IdLm53ENS_26linear_congruential_engineIjLj48271ELj0ELj2147483647EEEEET_RT1_, symObjAddr: 0x15B4, symBinAddr: 0x100003010, symSize: 0x114 }
  - { offsetInCU: 0x5E60, offset: 0x5E60, size: 0x8, addend: 0x0, symName: __ZNSt3__116__pad_and_outputB8ue170006IcNS_11char_traitsIcEEEENS_19ostreambuf_iteratorIT_T0_EES6_PKS4_S8_S8_RNS_8ios_baseES4_, symObjAddr: 0x190C, symBinAddr: 0x100003368, symSize: 0x240 }
  - { offsetInCU: 0x5F2F, offset: 0x5F2F, size: 0x8, addend: 0x0, symName: __ZNSt3__112__to_addressB8ue170006IKcEEPT_S3_, symObjAddr: 0x1E74, symBinAddr: 0x1000038D0, symSize: 0x14 }
  - { offsetInCU: 0x5F97, offset: 0x5F97, size: 0x8, addend: 0x0, symName: __ZNSt3__19use_facetB8ue170006INS_5ctypeIcEEEERKT_RKNS_6localeE, symObjAddr: 0x20F4, symBinAddr: 0x100003B50, symSize: 0x2C }
  - { offsetInCU: 0x6464, offset: 0x6464, size: 0x8, addend: 0x0, symName: __ZNSt3__118__constexpr_strlenB8ue170006EPKc, symObjAddr: 0x218C, symBinAddr: 0x100003BE8, symSize: 0x24 }
  - { offsetInCU: 0x6888, offset: 0x6888, size: 0x8, addend: 0x0, symName: __ZNKSt3__16chrono15__duration_castINS0_8durationIxNS_5ratioILl1ELl1000000000EEEEENS2_IdNS3_ILl1ELl1000EEEEENS3_ILl1ELl1000000EEELb1ELb0EEclB8ue170006ERKS5_, symObjAddr: 0x980, symBinAddr: 0x1000023DC, symSize: 0x50 }
  - { offsetInCU: 0x6903, offset: 0x6903, size: 0x8, addend: 0x0, symName: __ZNSt3__124uniform_int_distributionIiEclINS_26linear_congruential_engineIjLj48271ELj0ELj2147483647EEEEEiRT_RKNS1_10param_typeE, symObjAddr: 0xCB8, symBinAddr: 0x100002714, symSize: 0x188 }
  - { offsetInCU: 0x8CB0, offset: 0x8CB0, size: 0x8, addend: 0x0, symName: __Z12random_arrayPii, symObjAddr: 0x0, symBinAddr: 0x100001A5C, symSize: 0x84 }
  - { offsetInCU: 0x8D1F, offset: 0x8D1F, size: 0x8, addend: 0x0, symName: __ZNSt3__126linear_congruential_engineIjLj48271ELj0ELj2147483647EEC1B8ue170006Ev, symObjAddr: 0x84, symBinAddr: 0x100001AE0, symSize: 0x30 }
  - { offsetInCU: 0x8D48, offset: 0x8D48, size: 0x8, addend: 0x0, symName: __ZNSt3__124uniform_int_distributionIiEC1B8ue170006Eii, symObjAddr: 0xB4, symBinAddr: 0x100001B10, symSize: 0x3C }
  - { offsetInCU: 0x8D8C, offset: 0x8D8C, size: 0x8, addend: 0x0, symName: __ZNSt3__124uniform_int_distributionIiEclB8ue170006INS_26linear_congruential_engineIjLj48271ELj0ELj2147483647EEEEEiRT_, symObjAddr: 0xF0, symBinAddr: 0x100001B4C, symSize: 0x30 }
  - { offsetInCU: 0x8DC8, offset: 0x8DC8, size: 0x8, addend: 0x0, symName: __Z10fill_arrayPii, symObjAddr: 0x120, symBinAddr: 0x100001B7C, symSize: 0x6C }
  - { offsetInCU: 0x8E1B, offset: 0x8E1B, size: 0x8, addend: 0x0, symName: __Z13display_arrayPKcPi, symObjAddr: 0x18C, symBinAddr: 0x100001BE8, symSize: 0xAC }
  - { offsetInCU: 0x8E6D, offset: 0x8E6D, size: 0x8, addend: 0x0, symName: __Z8aprox_pii, symObjAddr: 0x238, symBinAddr: 0x100001C94, symSize: 0x130 }
  - { offsetInCU: 0x8F2D, offset: 0x8F2D, size: 0x8, addend: 0x0, symName: __ZNSt3__125uniform_real_distributionIdEC1B8ue170006Edd, symObjAddr: 0x368, symBinAddr: 0x100001DC4, symSize: 0x3C }
  - { offsetInCU: 0x8F71, offset: 0x8F71, size: 0x8, addend: 0x0, symName: __ZNSt3__125uniform_real_distributionIdEclB8ue170006INS_26linear_congruential_engineIjLj48271ELj0ELj2147483647EEEEEdRT_, symObjAddr: 0x3A4, symBinAddr: 0x100001E00, symSize: 0x30 }
  - { offsetInCU: 0x8FAD, offset: 0x8FAD, size: 0x8, addend: 0x0, symName: _main, symObjAddr: 0x3D4, symBinAddr: 0x100001E30, symSize: 0x1A8 }
  - { offsetInCU: 0x9056, offset: 0x9056, size: 0x8, addend: 0x0, symName: __ZNSt3__16chrono10time_pointINS0_12steady_clockENS0_8durationIxNS_5ratioILl1ELl1000000000EEEEEEC1B8ue170006Ev, symObjAddr: 0x57C, symBinAddr: 0x100001FD8, symSize: 0x2C }
  - { offsetInCU: 0x9084, offset: 0x9084, size: 0x8, addend: 0x0, symName: __ZNSt3__16chrono8durationIdNS_5ratioILl1ELl1000EEEEC1B8ue170006IxNS2_ILl1ELl1000000000EEEEERKNS1_IT_T0_EEPNS_9enable_ifIXaasr13__no_overflowIS8_S3_EE5valueooL_ZNS_17integral_constantIbLb1EE5valueEEaaeqsr13__no_overflowIS8_S3_E4typeE3denLi1Entsr23treat_as_floating_pointIS7_EE5valueEvE4typeE, symObjAddr: 0x648, symBinAddr: 0x1000020A4, symSize: 0x3C }
  - { offsetInCU: 0x90DA, offset: 0x90DA, size: 0x8, addend: 0x0, symName: __ZNKSt3__16chrono8durationIdNS_5ratioILl1ELl1000EEEE5countB8ue170006Ev, symObjAddr: 0x684, symBinAddr: 0x1000020E0, symSize: 0x18 }
  - { offsetInCU: 0x90FE, offset: 0x90FE, size: 0x8, addend: 0x0, symName: __ZNSt3__113basic_ostreamIcNS_11char_traitsIcEEElsB8ue170006EPFRNS_8ios_baseES5_E, symObjAddr: 0x6DC, symBinAddr: 0x100002138, symSize: 0x40 }
  - { offsetInCU: 0x9131, offset: 0x9131, size: 0x8, addend: 0x0, symName: __ZNSt3__16chrono10time_pointINS0_12steady_clockENS0_8durationIxNS_5ratioILl1ELl1000000000EEEEEEC2B8ue170006Ev, symObjAddr: 0x778, symBinAddr: 0x1000021D4, symSize: 0x34 }
  - { offsetInCU: 0x915A, offset: 0x915A, size: 0x8, addend: 0x0, symName: __ZNSt3__16chrono8durationIxNS_5ratioILl1ELl1000000000EEEE4zeroB8ue170006Ev, symObjAddr: 0x7AC, symBinAddr: 0x100002208, symSize: 0x3C }
  - { offsetInCU: 0x916E, offset: 0x916E, size: 0x8, addend: 0x0, symName: __ZNSt3__16chrono15duration_valuesIxE4zeroB8ue170006Ev, symObjAddr: 0x7E8, symBinAddr: 0x100002244, symSize: 0x8 }
  - { offsetInCU: 0x918C, offset: 0x918C, size: 0x8, addend: 0x0, symName: __ZNSt3__16chrono8durationIxNS_5ratioILl1ELl1000000000EEEEC1B8ue170006IxEERKT_PNS_9enable_ifIXaasr14is_convertibleIS8_xEE5valueooL_ZNS_17integral_constantIbLb0EE5valueEEntsr23treat_as_floating_pointIS6_EE5valueEvE4typeE, symObjAddr: 0x7F0, symBinAddr: 0x10000224C, symSize: 0x3C }
  - { offsetInCU: 0x91D8, offset: 0x91D8, size: 0x8, addend: 0x0, symName: __ZNSt3__16chrono8durationIxNS_5ratioILl1ELl1000000000EEEEC2B8ue170006IxEERKT_PNS_9enable_ifIXaasr14is_convertibleIS8_xEE5valueooL_ZNS_17integral_constantIbLb0EE5valueEEntsr23treat_as_floating_pointIS6_EE5valueEvE4typeE, symObjAddr: 0x838, symBinAddr: 0x100002294, symSize: 0x28 }
  - { offsetInCU: 0x9224, offset: 0x9224, size: 0x8, addend: 0x0, symName: __ZNKSt3__16chrono10time_pointINS0_12steady_clockENS0_8durationIxNS_5ratioILl1ELl1000000000EEEEEE16time_since_epochB8ue170006Ev, symObjAddr: 0x8D0, symBinAddr: 0x10000232C, symSize: 0x20 }
  - { offsetInCU: 0x9249, offset: 0x9249, size: 0x8, addend: 0x0, symName: __ZNKSt3__16chrono8durationIxNS_5ratioILl1ELl1000000000EEEE5countB8ue170006Ev, symObjAddr: 0x8F0, symBinAddr: 0x10000234C, symSize: 0x18 }
  - { offsetInCU: 0x926E, offset: 0x926E, size: 0x8, addend: 0x0, symName: __ZNSt3__16chrono8durationIdNS_5ratioILl1ELl1000EEEEC2B8ue170006IxNS2_ILl1ELl1000000000EEEEERKNS1_IT_T0_EEPNS_9enable_ifIXaasr13__no_overflowIS8_S3_EE5valueooL_ZNS_17integral_constantIbLb1EE5valueEEaaeqsr13__no_overflowIS8_S3_E4typeE3denLi1Entsr23treat_as_floating_pointIS7_EE5valueEvE4typeE, symObjAddr: 0x908, symBinAddr: 0x100002364, symSize: 0x48 }
  - { offsetInCU: 0x92CE, offset: 0x92CE, size: 0x8, addend: 0x0, symName: __ZNSt3__16chrono8durationIdNS_5ratioILl1ELl1000EEEEC1B8ue170006IdEERKT_PNS_9enable_ifIXaasr14is_convertibleIS8_dEE5valueooL_ZNS_17integral_constantIbLb1EE5valueEEntsr23treat_as_floating_pointIS6_EE5valueEvE4typeE, symObjAddr: 0x9D0, symBinAddr: 0x10000242C, symSize: 0x3C }
  - { offsetInCU: 0x931A, offset: 0x931A, size: 0x8, addend: 0x0, symName: __ZNSt3__16chrono8durationIdNS_5ratioILl1ELl1000EEEEC2B8ue170006IdEERKT_PNS_9enable_ifIXaasr14is_convertibleIS8_dEE5valueooL_ZNS_17integral_constantIbLb1EE5valueEEntsr23treat_as_floating_pointIS6_EE5valueEvE4typeE, symObjAddr: 0xA0C, symBinAddr: 0x100002468, symSize: 0x28 }
  - { offsetInCU: 0x9366, offset: 0x9366, size: 0x8, addend: 0x0, symName: __ZNSt3__18ios_base4setfB8ue170006Ejj, symObjAddr: 0xA34, symBinAddr: 0x100002490, symSize: 0x5C }
  - { offsetInCU: 0x93BA, offset: 0x93BA, size: 0x8, addend: 0x0, symName: __ZNSt3__18ios_base6unsetfB8ue170006Ej, symObjAddr: 0xA90, symBinAddr: 0x1000024EC, symSize: 0x28 }
  - { offsetInCU: 0x93F0, offset: 0x93F0, size: 0x8, addend: 0x0, symName: __ZNSt3__18__iom_t5C1B8ue170006Ei, symObjAddr: 0xAB8, symBinAddr: 0x100002514, symSize: 0x34 }
  - { offsetInCU: 0x9427, offset: 0x9427, size: 0x8, addend: 0x0, symName: __ZNSt3__18__iom_t5C2B8ue170006Ei, symObjAddr: 0xAEC, symBinAddr: 0x100002548, symSize: 0x20 }
  - { offsetInCU: 0x945E, offset: 0x945E, size: 0x8, addend: 0x0, symName: __ZNSt3__126linear_congruential_engineIjLj48271ELj0ELj2147483647EEC1B8ue170006Ej, symObjAddr: 0xB0C, symBinAddr: 0x100002568, symSize: 0x34 }
  - { offsetInCU: 0x9495, offset: 0x9495, size: 0x8, addend: 0x0, symName: __ZNSt3__126linear_congruential_engineIjLj48271ELj0ELj2147483647EEC2B8ue170006Ej, symObjAddr: 0xB40, symBinAddr: 0x10000259C, symSize: 0x34 }
  - { offsetInCU: 0x94CB, offset: 0x94CB, size: 0x8, addend: 0x0, symName: __ZNSt3__126linear_congruential_engineIjLj48271ELj0ELj2147483647EE4seedB8ue170006Ej, symObjAddr: 0xB74, symBinAddr: 0x1000025D0, symSize: 0x2C }
  - { offsetInCU: 0x94FE, offset: 0x94FE, size: 0x8, addend: 0x0, symName: __ZNSt3__126linear_congruential_engineIjLj48271ELj0ELj2147483647EE4seedB8ue170006ENS_17integral_constantIbLb0EEENS2_IbLb1EEEj, symObjAddr: 0xBA0, symBinAddr: 0x1000025FC, symSize: 0x74 }
  - { offsetInCU: 0x954A, offset: 0x954A, size: 0x8, addend: 0x0, symName: __ZNSt3__124uniform_int_distributionIiEC2B8ue170006Eii, symObjAddr: 0xC14, symBinAddr: 0x100002670, symSize: 0x3C }
  - { offsetInCU: 0x958F, offset: 0x958F, size: 0x8, addend: 0x0, symName: __ZNSt3__124uniform_int_distributionIiE10param_typeC1B8ue170006Eii, symObjAddr: 0xC50, symBinAddr: 0x1000026AC, symSize: 0x3C }
  - { offsetInCU: 0x95D4, offset: 0x95D4, size: 0x8, addend: 0x0, symName: __ZNSt3__124uniform_int_distributionIiE10param_typeC2B8ue170006Eii, symObjAddr: 0xC8C, symBinAddr: 0x1000026E8, symSize: 0x2C }
  - { offsetInCU: 0x9619, offset: 0x9619, size: 0x8, addend: 0x0, symName: __ZNKSt3__124uniform_int_distributionIiE10param_type1bB8ue170006Ev, symObjAddr: 0xE40, symBinAddr: 0x10000289C, symSize: 0x18 }
  - { offsetInCU: 0x963E, offset: 0x963E, size: 0x8, addend: 0x0, symName: __ZNKSt3__124uniform_int_distributionIiE10param_type1aB8ue170006Ev, symObjAddr: 0xE58, symBinAddr: 0x1000028B4, symSize: 0x18 }
  - { offsetInCU: 0x9663, offset: 0x9663, size: 0x8, addend: 0x0, symName: __ZNSt3__125__independent_bits_engineINS_26linear_congruential_engineIjLj48271ELj0ELj2147483647EEEjEC1ERS2_m, symObjAddr: 0xE70, symBinAddr: 0x1000028CC, symSize: 0x3C }
  - { offsetInCU: 0x96A8, offset: 0x96A8, size: 0x8, addend: 0x0, symName: __ZNSt3__125__independent_bits_engineINS_26linear_congruential_engineIjLj48271ELj0ELj2147483647EEEjEclB8ue170006Ev, symObjAddr: 0xEAC, symBinAddr: 0x100002908, symSize: 0x24 }
  - { offsetInCU: 0x96CD, offset: 0x96CD, size: 0x8, addend: 0x0, symName: __ZNSt3__114numeric_limitsIjE3maxB8ue170006Ev, symObjAddr: 0xF24, symBinAddr: 0x100002980, symSize: 0x14 }
  - { offsetInCU: 0x96E1, offset: 0x96E1, size: 0x8, addend: 0x0, symName: __ZNSt3__125__independent_bits_engineINS_26linear_congruential_engineIjLj48271ELj0ELj2147483647EEEjEC2ERS2_m, symObjAddr: 0xF38, symBinAddr: 0x100002994, symSize: 0x270 }
  - { offsetInCU: 0x9726, offset: 0x9726, size: 0x8, addend: 0x0, symName: __ZNSt3__125__independent_bits_engineINS_26linear_congruential_engineIjLj48271ELj0ELj2147483647EEEjE6__evalENS_17integral_constantIbLb1EEE, symObjAddr: 0x11A8, symBinAddr: 0x100002C04, symSize: 0x1E8 }
  - { offsetInCU: 0x97E2, offset: 0x97E2, size: 0x8, addend: 0x0, symName: __ZNSt3__126linear_congruential_engineIjLj48271ELj0ELj2147483647EEclB8ue170006Ev, symObjAddr: 0x1390, symBinAddr: 0x100002DEC, symSize: 0x34 }
  - { offsetInCU: 0x9807, offset: 0x9807, size: 0x8, addend: 0x0, symName: __ZNSt3__126linear_congruential_engineIjLj48271ELj0ELj2147483647EE3minB8ue170006Ev, symObjAddr: 0x13C4, symBinAddr: 0x100002E20, symSize: 0x8 }
  - { offsetInCU: 0x9826, offset: 0x9826, size: 0x8, addend: 0x0, symName: __ZNSt3__18__lce_taILy48271ELy0ELy2147483647ELy4294967295ELb1EE4nextB8ue170006Ej, symObjAddr: 0x13CC, symBinAddr: 0x100002E28, symSize: 0x88 }
  - { offsetInCU: 0x989D, offset: 0x989D, size: 0x8, addend: 0x0, symName: __ZNSt3__123__libcpp_numeric_limitsIjLb1EE3maxB8ue170006Ev, symObjAddr: 0x146C, symBinAddr: 0x100002EC8, symSize: 0x8 }
  - { offsetInCU: 0x98B1, offset: 0x98B1, size: 0x8, addend: 0x0, symName: __ZNSt3__125uniform_real_distributionIdEC2B8ue170006Edd, symObjAddr: 0x1474, symBinAddr: 0x100002ED0, symSize: 0x3C }
  - { offsetInCU: 0x98F6, offset: 0x98F6, size: 0x8, addend: 0x0, symName: __ZNSt3__125uniform_real_distributionIdE10param_typeC1B8ue170006Edd, symObjAddr: 0x14B0, symBinAddr: 0x100002F0C, symSize: 0x3C }
  - { offsetInCU: 0x993B, offset: 0x993B, size: 0x8, addend: 0x0, symName: __ZNSt3__125uniform_real_distributionIdE10param_typeC2B8ue170006Edd, symObjAddr: 0x14EC, symBinAddr: 0x100002F48, symSize: 0x2C }
  - { offsetInCU: 0x997F, offset: 0x997F, size: 0x8, addend: 0x0, symName: __ZNSt3__125uniform_real_distributionIdEclINS_26linear_congruential_engineIjLj48271ELj0ELj2147483647EEEEEdRT_RKNS1_10param_typeE, symObjAddr: 0x1518, symBinAddr: 0x100002F74, symSize: 0x6C }
  - { offsetInCU: 0x99CA, offset: 0x99CA, size: 0x8, addend: 0x0, symName: __ZNKSt3__125uniform_real_distributionIdE10param_type1bB8ue170006Ev, symObjAddr: 0x1584, symBinAddr: 0x100002FE0, symSize: 0x18 }
  - { offsetInCU: 0x99EF, offset: 0x99EF, size: 0x8, addend: 0x0, symName: __ZNKSt3__125uniform_real_distributionIdE10param_type1aB8ue170006Ev, symObjAddr: 0x159C, symBinAddr: 0x100002FF8, symSize: 0x18 }
  - { offsetInCU: 0x9A14, offset: 0x9A14, size: 0x8, addend: 0x0, symName: __ZNSt3__126linear_congruential_engineIjLj48271ELj0ELj2147483647EE3maxB8ue170006Ev, symObjAddr: 0x16C8, symBinAddr: 0x100003124, symSize: 0x8 }
  - { offsetInCU: 0x9A28, offset: 0x9A28, size: 0x8, addend: 0x0, symName: __ZNSt3__111char_traitsIcE6lengthB8ue170006EPKc, symObjAddr: 0x18BC, symBinAddr: 0x100003318, symSize: 0x34 }
  - { offsetInCU: 0x9A69, offset: 0x9A69, size: 0x8, addend: 0x0, symName: __ZNKSt3__113basic_ostreamIcNS_11char_traitsIcEEE6sentrycvbB8ue170006Ev, symObjAddr: 0x18F0, symBinAddr: 0x10000334C, symSize: 0x1C }
  - { offsetInCU: 0x9A8E, offset: 0x9A8E, size: 0x8, addend: 0x0, symName: __ZNSt3__119ostreambuf_iteratorIcNS_11char_traitsIcEEEC1B8ue170006ERNS_13basic_ostreamIcS2_EE, symObjAddr: 0x1B4C, symBinAddr: 0x1000035A8, symSize: 0x34 }
  - { offsetInCU: 0x9AC5, offset: 0x9AC5, size: 0x8, addend: 0x0, symName: __ZNKSt3__18ios_base5flagsB8ue170006Ev, symObjAddr: 0x1B80, symBinAddr: 0x1000035DC, symSize: 0x18 }
  - { offsetInCU: 0x9AEC, offset: 0x9AEC, size: 0x8, addend: 0x0, symName: __ZNKSt3__19basic_iosIcNS_11char_traitsIcEEE4fillB8ue170006Ev, symObjAddr: 0x1B98, symBinAddr: 0x1000035F4, symSize: 0x64 }
  - { offsetInCU: 0x9B13, offset: 0x9B13, size: 0x8, addend: 0x0, symName: __ZNKSt3__119ostreambuf_iteratorIcNS_11char_traitsIcEEE6failedB8ue170006Ev, symObjAddr: 0x1BFC, symBinAddr: 0x100003658, symSize: 0x24 }
  - { offsetInCU: 0x9B37, offset: 0x9B37, size: 0x8, addend: 0x0, symName: __ZNSt3__19basic_iosIcNS_11char_traitsIcEEE8setstateB8ue170006Ej, symObjAddr: 0x1C20, symBinAddr: 0x10000367C, symSize: 0x2C }
  - { offsetInCU: 0x9B6B, offset: 0x9B6B, size: 0x8, addend: 0x0, symName: __ZNKSt3__18ios_base5widthB8ue170006Ev, symObjAddr: 0x1C4C, symBinAddr: 0x1000036A8, symSize: 0x18 }
  - { offsetInCU: 0x9B91, offset: 0x9B91, size: 0x8, addend: 0x0, symName: __ZNSt3__115basic_streambufIcNS_11char_traitsIcEEE5sputnB8ue170006EPKcl, symObjAddr: 0x1C64, symBinAddr: 0x1000036C0, symSize: 0x3C }
  - { offsetInCU: 0x9BD2, offset: 0x9BD2, size: 0x8, addend: 0x0, symName: __ZNSt3__112basic_stringIcNS_11char_traitsIcEENS_9allocatorIcEEEC1B8ue170006Emc, symObjAddr: 0x1CA0, symBinAddr: 0x1000036FC, symSize: 0x3C }
  - { offsetInCU: 0x9C18, offset: 0x9C18, size: 0x8, addend: 0x0, symName: __ZNKSt3__112basic_stringIcNS_11char_traitsIcEENS_9allocatorIcEEE4dataB8ue170006Ev, symObjAddr: 0x1CDC, symBinAddr: 0x100003738, symSize: 0x28 }
  - { offsetInCU: 0x9C3D, offset: 0x9C3D, size: 0x8, addend: 0x0, symName: __ZNSt3__18ios_base5widthB8ue170006El, symObjAddr: 0x1D04, symBinAddr: 0x100003760, symSize: 0x2C }
  - { offsetInCU: 0x9C82, offset: 0x9C82, size: 0x8, addend: 0x0, symName: __ZNSt3__112basic_stringIcNS_11char_traitsIcEENS_9allocatorIcEEEC2B8ue170006Emc, symObjAddr: 0x1D30, symBinAddr: 0x10000378C, symSize: 0x4C }
  - { offsetInCU: 0x9CCE, offset: 0x9CCE, size: 0x8, addend: 0x0, symName: __ZNSt3__117__compressed_pairINS_12basic_stringIcNS_11char_traitsIcEENS_9allocatorIcEEE5__repES5_EC1B8ue170006INS_18__default_init_tagESA_EEOT_OT0_, symObjAddr: 0x1D7C, symBinAddr: 0x1000037D8, symSize: 0x3C }
  - { offsetInCU: 0x9D25, offset: 0x9D25, size: 0x8, addend: 0x0, symName: __ZNSt3__117__compressed_pairINS_12basic_stringIcNS_11char_traitsIcEENS_9allocatorIcEEE5__repES5_EC2B8ue170006INS_18__default_init_tagESA_EEOT_OT0_, symObjAddr: 0x1DB8, symBinAddr: 0x100003814, symSize: 0x3C }
  - { offsetInCU: 0x9D7C, offset: 0x9D7C, size: 0x8, addend: 0x0, symName: __ZNSt3__122__compressed_pair_elemINS_12basic_stringIcNS_11char_traitsIcEENS_9allocatorIcEEE5__repELi0ELb0EEC2B8ue170006ENS_18__default_init_tagE, symObjAddr: 0x1DF4, symBinAddr: 0x100003850, symSize: 0x14 }
  - { offsetInCU: 0x9DB0, offset: 0x9DB0, size: 0x8, addend: 0x0, symName: __ZNSt3__122__compressed_pair_elemINS_9allocatorIcEELi1ELb1EEC2B8ue170006ENS_18__default_init_tagE, symObjAddr: 0x1E08, symBinAddr: 0x100003864, symSize: 0x2C }
  - { offsetInCU: 0x9DE4, offset: 0x9DE4, size: 0x8, addend: 0x0, symName: __ZNSt3__19allocatorIcEC2B8ue170006Ev, symObjAddr: 0x1E34, symBinAddr: 0x100003890, symSize: 0x2C }
  - { offsetInCU: 0x9E0D, offset: 0x9E0D, size: 0x8, addend: 0x0, symName: __ZNSt3__116__non_trivial_ifILb1ENS_9allocatorIcEEEC2B8ue170006Ev, symObjAddr: 0x1E60, symBinAddr: 0x1000038BC, symSize: 0x14 }
  - { offsetInCU: 0x9E35, offset: 0x9E35, size: 0x8, addend: 0x0, symName: __ZNKSt3__112basic_stringIcNS_11char_traitsIcEENS_9allocatorIcEEE13__get_pointerB8ue170006Ev, symObjAddr: 0x1E88, symBinAddr: 0x1000038E4, symSize: 0x54 }
  - { offsetInCU: 0x9E59, offset: 0x9E59, size: 0x8, addend: 0x0, symName: __ZNKSt3__112basic_stringIcNS_11char_traitsIcEENS_9allocatorIcEEE9__is_longB8ue170006Ev, symObjAddr: 0x1EDC, symBinAddr: 0x100003938, symSize: 0x38 }
  - { offsetInCU: 0x9E7D, offset: 0x9E7D, size: 0x8, addend: 0x0, symName: __ZNKSt3__112basic_stringIcNS_11char_traitsIcEENS_9allocatorIcEEE18__get_long_pointerB8ue170006Ev, symObjAddr: 0x1F14, symBinAddr: 0x100003970, symSize: 0x28 }
  - { offsetInCU: 0x9EA1, offset: 0x9EA1, size: 0x8, addend: 0x0, symName: __ZNKSt3__112basic_stringIcNS_11char_traitsIcEENS_9allocatorIcEEE19__get_short_pointerB8ue170006Ev, symObjAddr: 0x1F3C, symBinAddr: 0x100003998, symSize: 0x28 }
  - { offsetInCU: 0x9EC5, offset: 0x9EC5, size: 0x8, addend: 0x0, symName: __ZNKSt3__117__compressed_pairINS_12basic_stringIcNS_11char_traitsIcEENS_9allocatorIcEEE5__repES5_E5firstB8ue170006Ev, symObjAddr: 0x1F64, symBinAddr: 0x1000039C0, symSize: 0x24 }
  - { offsetInCU: 0x9EEA, offset: 0x9EEA, size: 0x8, addend: 0x0, symName: __ZNKSt3__122__compressed_pair_elemINS_12basic_stringIcNS_11char_traitsIcEENS_9allocatorIcEEE5__repELi0ELb0EE5__getB8ue170006Ev, symObjAddr: 0x1F88, symBinAddr: 0x1000039E4, symSize: 0x14 }
  - { offsetInCU: 0x9F0F, offset: 0x9F0F, size: 0x8, addend: 0x0, symName: __ZNSt3__114pointer_traitsIPKcE10pointer_toB8ue170006ERS1_, symObjAddr: 0x1F9C, symBinAddr: 0x1000039F8, symSize: 0x14 }
  - { offsetInCU: 0x9F32, offset: 0x9F32, size: 0x8, addend: 0x0, symName: __ZNSt3__119ostreambuf_iteratorIcNS_11char_traitsIcEEEC2B8ue170006ERNS_13basic_ostreamIcS2_EE, symObjAddr: 0x1FB0, symBinAddr: 0x100003A0C, symSize: 0x54 }
  - { offsetInCU: 0x9F69, offset: 0x9F69, size: 0x8, addend: 0x0, symName: __ZNKSt3__19basic_iosIcNS_11char_traitsIcEEE5rdbufB8ue170006Ev, symObjAddr: 0x2004, symBinAddr: 0x100003A60, symSize: 0x24 }
  - { offsetInCU: 0x9F90, offset: 0x9F90, size: 0x8, addend: 0x0, symName: __ZNKSt3__18ios_base5rdbufB8ue170006Ev, symObjAddr: 0x2028, symBinAddr: 0x100003A84, symSize: 0x18 }
  - { offsetInCU: 0x9FB5, offset: 0x9FB5, size: 0x8, addend: 0x0, symName: __ZNSt3__111char_traitsIcE11eq_int_typeB8ue170006Eii, symObjAddr: 0x2040, symBinAddr: 0x100003A9C, symSize: 0x28 }
  - { offsetInCU: 0x9FE8, offset: 0x9FE8, size: 0x8, addend: 0x0, symName: __ZNSt3__111char_traitsIcE3eofB8ue170006Ev, symObjAddr: 0x2068, symBinAddr: 0x100003AC4, symSize: 0x8 }
  - { offsetInCU: 0x9FFC, offset: 0x9FFC, size: 0x8, addend: 0x0, symName: __ZNKSt3__19basic_iosIcNS_11char_traitsIcEEE5widenB8ue170006Ec, symObjAddr: 0x2070, symBinAddr: 0x100003ACC, symSize: 0x84 }
  - { offsetInCU: 0xA063, offset: 0xA063, size: 0x8, addend: 0x0, symName: __ZNKSt3__15ctypeIcE5widenB8ue170006Ec, symObjAddr: 0x2120, symBinAddr: 0x100003B7C, symSize: 0x38 }
  - { offsetInCU: 0xA097, offset: 0xA097, size: 0x8, addend: 0x0, symName: __ZNSt3__18ios_base8setstateB8ue170006Ej, symObjAddr: 0x2158, symBinAddr: 0x100003BB4, symSize: 0x34 }
  - { offsetInCU: 0xA0CD, offset: 0xA0CD, size: 0x8, addend: 0x0, symName: __ZNSt3__18ios_base9precisionB8ue170006El, symObjAddr: 0x21B0, symBinAddr: 0x100003C0C, symSize: 0x2C }
...
